(lp0
(dp1
S'text'
p2
V@nefarioustim wrote a 140 character tweet decrying the failure of the English language in international usage but erased it to just say fuck
p3
sS'created_at'
p4
ctime
struct_time
p5
((I2009
I3
I26
I14
I58
I1
I3
I85
I-1
tp6
(dp7
tp8
Rp9
sS'id'
p10
V1394761432
p11
sS'user'
p12
(dp13
S'description'
p14
VFarhan is a geek marketer wannabe entrepreneur
p15
sS'url'
p16
Vhttp://www.fiftybyfifty.com
p17
sS'profile_image_url'
p18
Vhttp://s3.amazonaws.com/twitter_production/profile_images/59031944/me_switz_normal.jpg
p19
sS'name'
p20
VFarhan Lalji
p21
sS'location'
p22
VGeneva, Switzerland
p23
sg10
V7013472
p24
sS'screen_name'
p25
Vfarhanlalji
p26
ssa(dp27
g2
V@farhanlalji: Not to mention internationalization. The FAIL is inherent.
p28
sg4
g5
((I2009
I3
I26
I14
I38
I9
I3
I85
I-1
tp29
(dp30
tp31
Rp32
sg10
V1394645019
p33
sg12
(dp34
g14
VWeb developing, music loving, various instrument playing, gamer cook with a menagerie.
p35
sg16
Vhttp://nefariousdesigns.co.uk
p36
sg18
Vhttp://s3.amazonaws.com/twitter_production/profile_images/59828181/Timmah2008_normal.jpg
p37
sg20
VTimbo
p38
sg22
VLondon, England
p39
sg10
V12485
p40
sg25
Vnefarioustim
p41
ssa(dp42
g2
Vhas really begun to appreciate film OSTs for music to code by.
p43
sg4
g5
((I2009
I3
I26
I11
I23
I22
I3
I85
I-1
tp44
(dp45
tp46
Rp47
sg10
V1393757354
p48
sg12
(dp49
g14
VWeb developing, music loving, various instrument playing, gamer cook with a menagerie.
p50
sg16
Vhttp://nefariousdesigns.co.uk
p51
sg18
Vhttp://s3.amazonaws.com/twitter_production/profile_images/59828181/Timmah2008_normal.jpg
p52
sg20
VTimbo
p53
sg22
VLondon, England
p54
sg10
V12485
p55
sg25
Vnefarioustim
p56
ssa(dp57
g2
Vcan only hear other people's music. Needs tea and then will plug in.
p58
sg4
g5
((I2009
I3
I26
I11
I1
I14
I3
I85
I-1
tp59
(dp60
tp61
Rp62
sg10
V1393687941
p63
sg12
(dp64
g14
VWeb developing, music loving, various instrument playing, gamer cook with a menagerie.
p65
sg16
Vhttp://nefariousdesigns.co.uk
p66
sg18
Vhttp://s3.amazonaws.com/twitter_production/profile_images/59828181/Timmah2008_normal.jpg
p67
sg20
VTimbo
p68
sg22
VLondon, England
p69
sg10
V12485
p70
sg25
Vnefarioustim
p71
ssa(dp72
g2
Vhttp://twitpic.com/2gfta - can haz soft toys?
p73
sg4
g5
((I2009
I3
I26
I9
I14
I0
I3
I85
I-1
tp74
(dp75
tp76
Rp77
sg10
V1393402309
p78
sg12
(dp79
g14
VWeb developing, music loving, various instrument playing, gamer cook with a menagerie.
p80
sg16
Vhttp://nefariousdesigns.co.uk
p81
sg18
Vhttp://s3.amazonaws.com/twitter_production/profile_images/59828181/Timmah2008_normal.jpg
p82
sg20
VTimbo
p83
sg22
VLondon, England
p84
sg10
V12485
p85
sg25
Vnefarioustim
p86
ssa(dp87
g2
Vhas just been sent a funny photo by wifey.
p88
sg4
g5
((I2009
I3
I26
I9
I12
I24
I3
I85
I-1
tp89
(dp90
tp91
Rp92
sg10
V1393398404
p93
sg12
(dp94
g14
VWeb developing, music loving, various instrument playing, gamer cook with a menagerie.
p95
sg16
Vhttp://nefariousdesigns.co.uk
p96
sg18
Vhttp://s3.amazonaws.com/twitter_production/profile_images/59828181/Timmah2008_normal.jpg
p97
sg20
VTimbo
p98
sg22
VLondon, England
p99
sg10
V12485
p100
sg25
Vnefarioustim
p101
ssa(dp102
g2
Vneeds to get a new phone. This one is pony.
p103
sg4
g5
((I2009
I3
I26
I8
I31
I5
I3
I85
I-1
tp104
(dp105
tp106
Rp107
sg10
V1393297400
p108
sg12
(dp109
g14
VWeb developing, music loving, various instrument playing, gamer cook with a menagerie.
p110
sg16
Vhttp://nefariousdesigns.co.uk
p111
sg18
Vhttp://s3.amazonaws.com/twitter_production/profile_images/59828181/Timmah2008_normal.jpg
p112
sg20
VTimbo
p113
sg22
VLondon, England
p114
sg10
V12485
p115
sg25
Vnefarioustim
p116
ssa(dp117
g2
Vis up and awake really frakking early.
p118
sg4
g5
((I2009
I3
I26
I5
I49
I6
I3
I85
I-1
tp119
(dp120
tp121
Rp122
sg10
V1392880951
p123
sg12
(dp124
g14
VWeb developing, music loving, various instrument playing, gamer cook with a menagerie.
p125
sg16
Vhttp://nefariousdesigns.co.uk
p126
sg18
Vhttp://s3.amazonaws.com/twitter_production/profile_images/59828181/Timmah2008_normal.jpg
p127
sg20
VTimbo
p128
sg22
VLondon, England
p129
sg10
V12485
p130
sg25
Vnefarioustim
p131
ssa(dp132
g2
Vis going to bed now after minor Python WIN.
p133
sg4
g5
((I2009
I3
I25
I23
I21
I4
I2
I84
I-1
tp134
(dp135
tp136
Rp137
sg10
V1391081353
p138
sg12
(dp139
g14
VWeb developing, music loving, various instrument playing, gamer cook with a menagerie.
p140
sg16
Vhttp://nefariousdesigns.co.uk
p141
sg18
Vhttp://s3.amazonaws.com/twitter_production/profile_images/59828181/Timmah2008_normal.jpg
p142
sg20
VTimbo
p143
sg22
VLondon, England
p144
sg10
V12485
p145
sg25
Vnefarioustim
p146
ssa(dp147
g2
Vis learning about pickling (objects, not foodstuffs).
p148
sg4
g5
((I2009
I3
I25
I22
I56
I4
I2
I84
I-1
tp149
(dp150
tp151
Rp152
sg10
V1390949633
p153
sg12
(dp154
g14
VWeb developing, music loving, various instrument playing, gamer cook with a menagerie.
p155
sg16
Vhttp://nefariousdesigns.co.uk
p156
sg18
Vhttp://s3.amazonaws.com/twitter_production/profile_images/59828181/Timmah2008_normal.jpg
p157
sg20
VTimbo
p158
sg22
VLondon, England
p159
sg10
V12485
p160
sg25
Vnefarioustim
p161
ssa.