(lp0
(dp1
S'text'
p2
Vis learning about pickling (objects, not foodstuffs).
p3
sS'created_at'
p4
ctime
struct_time
p5
((I2009
I3
I25
I22
I56
I4
I2
I84
I-1
tp6
(dp7
tp8
Rp9
sS'id'
p10
V1390949633
p11
sS'user'
p12
(dp13
S'description'
p14
VWeb developing, music loving, various instrument playing, gamer cook with a menagerie.
p15
sS'url'
p16
Vhttp://nefariousdesigns.co.uk
p17
sS'profile_image_url'
p18
Vhttp://s3.amazonaws.com/twitter_production/profile_images/59828181/Timmah2008_normal.jpg
p19
sS'name'
p20
VTimbo
p21
sS'location'
p22
VLondon, England
p23
sg10
V12485
p24
sS'screen_name'
p25
Vnefarioustim
p26
ssa(dp27
g2
Vloves Python. Especially since it seems to be getting his tweets.
p28
sg4
g5
((I2009
I3
I25
I22
I29
I41
I2
I84
I-1
tp29
(dp30
tp31
Rp32
sg10
V1390805795
p33
sg12
(dp34
g14
VWeb developing, music loving, various instrument playing, gamer cook with a menagerie.
p35
sg16
Vhttp://nefariousdesigns.co.uk
p36
sg18
Vhttp://s3.amazonaws.com/twitter_production/profile_images/59828181/Timmah2008_normal.jpg
p37
sg20
VTimbo
p38
sg22
VLondon, England
p39
sg10
V12485
p40
sg25
Vnefarioustim
p41
ssa(dp42
g2
Vhas already started shouting at the idiots on the telly.
p43
sg4
g5
((I2009
I3
I25
I21
I18
I20
I2
I84
I-1
tp44
(dp45
tp46
Rp47
sg10
V1390414678
p48
sg12
(dp49
g14
VWeb developing, music loving, various instrument playing, gamer cook with a menagerie.
p50
sg16
Vhttp://nefariousdesigns.co.uk
p51
sg18
Vhttp://s3.amazonaws.com/twitter_production/profile_images/59828181/Timmah2008_normal.jpg
p52
sg20
VTimbo
p53
sg22
VLondon, England
p54
sg10
V12485
p55
sg25
Vnefarioustim
p56
ssa(dp57
g2
Vis also watching The Apprentice with schadenfreude in mind.
p58
sg4
g5
((I2009
I3
I25
I21
I10
I46
I2
I84
I-1
tp59
(dp60
tp61
Rp62
sg10
V1390373363
p63
sg12
(dp64
g14
VWeb developing, music loving, various instrument playing, gamer cook with a menagerie.
p65
sg16
Vhttp://nefariousdesigns.co.uk
p66
sg18
Vhttp://s3.amazonaws.com/twitter_production/profile_images/59828181/Timmah2008_normal.jpg
p67
sg20
VTimbo
p68
sg22
VLondon, England
p69
sg10
V12485
p70
sg25
Vnefarioustim
p71
ssa(dp72
g2
V@nefarioustim you are kevin keegan and you run away to manage Newcastle united.
p73
sg4
g5
((I2009
I3
I25
I19
I43
I0
I2
I84
I-1
tp74
(dp75
tp76
Rp77
sg10
V1389902966
p78
sg12
(dp79
g14
Nsg16
Nsg18
Vhttp://s3.amazonaws.com/twitter_production/profile_images/53955677/n609619295_6102_normal.jpg
p80
sg20
VGeoffHuggins
p81
sg22
ViPhone: 55.952087,-3.132629
p82
sg10
V14710505
p83
sg25
VGeoffHuggins
p84
ssa.