(lp0
(dp1
S'user'
p2
(dp3
S'description'
p4
VWeb developing, music loving, various instrument playing, gamer cook with a menagerie.
p5
sS'url'
p6
Vhttp://nefariousdesigns.co.uk
p7
sS'profile_image_url'
p8
Vhttp://s3.amazonaws.com/twitter_production/profile_images/59828181/Timmah2008_normal.jpg
p9
sS'name'
p10
VTimbo
p11
sS'location'
p12
VLondon, England
p13
sS'id'
p14
V12485
p15
sS'screen_name'
p16
Vnefarioustim
p17
ssS'text'
p18
Vhas found the culprit, thanks to @intranation; a UTF-8 encoded em-dash in his User-Agent string. Never cut and paste from PDF!
p19
sS'created_at'
p20
cdatetime
datetime
p21
(S'\x07\xd9\x04\x02\x16\x02*\x00\x00\x00'
p22
tp23
Rp24
sg14
V1441280756
p25
sS'created_at_raw'
p26
VThu Apr 02 22:02:42 +0000 2009
p27
sa(dp28
g2
(dp29
g4
VWeb developing, music loving, various instrument playing, gamer cook with a menagerie.
p30
sg6
Vhttp://nefariousdesigns.co.uk
p31
sg8
Vhttp://s3.amazonaws.com/twitter_production/profile_images/59828181/Timmah2008_normal.jpg
p32
sg10
VTimbo
p33
sg12
VLondon, England
p34
sg14
V12485
p35
sg16
Vnefarioustim
p36
ssg18
Vcan make the headers work via Telnet FFS, so why not Python?
p37
sg20
g21
(S'\x07\xd9\x04\x02\x15/\x0c\x00\x00\x00'
p38
tp39
Rp40
sg14
V1441190198
p41
sg26
VThu Apr 02 21:47:12 +0000 2009
p42
sa(dp43
g2
(dp44
g4
VWeb developing, music loving, various instrument playing, gamer cook with a menagerie.
p45
sg6
Vhttp://nefariousdesigns.co.uk
p46
sg8
Vhttp://s3.amazonaws.com/twitter_production/profile_images/59828181/Timmah2008_normal.jpg
p47
sg10
VTimbo
p48
sg12
VLondon, England
p49
sg14
V12485
p50
sg16
Vnefarioustim
p51
ssg18
Vthanks @intranation for his informative Tweets. Python doesn't work :(
p52
sg20
g21
(S'\x07\xd9\x04\x02\x15\x1e\r\x00\x00\x00'
p53
tp54
Rp55
sg14
V1441090615
p56
sg26
VThu Apr 02 21:30:13 +0000 2009
p57
sa(dp58
g2
(dp59
g4
VPowered by beer and wasabi peas.
p60
sg6
Vhttp://intranation.com/
p61
sg8
Vhttp://s3.amazonaws.com/twitter_production/profile_images/60705695/brad-beer_normal.jpg
p62
sg10
VBradley Wright
p63
sg12
VLondon
p64
sg14
V79773
p65
sg16
Vintranation
p66
ssg18
V@nefarioustim turns out it was just intermittent Twitter fail. Your Python should work now.
p67
sg20
g21
(S'\x07\xd9\x04\x02\x11\x1e$\x00\x00\x00'
p68
tp69
Rp70
sg14
V1439670128
p71
sg26
VThu Apr 02 17:30:36 +0000 2009
p72
sa(dp73
g2
(dp74
g4
VWeb developing, music loving, various instrument playing, gamer cook with a menagerie.
p75
sg6
Vhttp://nefariousdesigns.co.uk
p76
sg8
Vhttp://s3.amazonaws.com/twitter_production/profile_images/59828181/Timmah2008_normal.jpg
p77
sg10
VTimbo
p78
sg12
VLondon, England
p79
sg14
V12485
p80
sg16
Vnefarioustim
p81
ssg18
Vis channeling @mikewest at @isofarro whilst on the train home. "Use screen!"
p82
sg20
g21
(S'\x07\xd9\x04\x02\x11\x1b5\x00\x00\x00'
p83
tp84
Rp85
sg14
V1439653693
p86
sg26
VThu Apr 02 17:27:53 +0000 2009
p87
sa.