(lp0
(dp1
S'user'
p2
(dp3
S'description'
p4
VWeb developing, music loving, various instrument playing, gamer cook with a menagerie.
p5
sS'url'
p6
Vhttp://nefariousdesigns.co.uk
p7
sS'profile_image_url'
p8
Vhttp://s3.amazonaws.com/twitter_production/profile_images/59828181/Timmah2008_normal.jpg
p9
sS'name'
p10
VTimbo
p11
sS'location'
p12
VLondon, England
p13
sS'id'
p14
V12485
p15
sS'screen_name'
p16
Vnefarioustim
p17
ssS'text'
p18
V@garethr: Thanks dude.
p19
sS'created_at'
p20
cdatetime
datetime
p21
(S'\x07\xd9\x04\x0f\x0c\x15\x0f\x00\x00\x00'
p22
tp23
Rp24
sg14
V1524763295
p25
sS'created_at_raw'
p26
VWed Apr 15 12:21:15 +0000 2009
p27
sa(dp28
g2
(dp29
g4
VWeb developing, music loving, various instrument playing, gamer cook with a menagerie.
p30
sg6
Vhttp://nefariousdesigns.co.uk
p31
sg8
Vhttp://s3.amazonaws.com/twitter_production/profile_images/59828181/Timmah2008_normal.jpg
p32
sg10
VTimbo
p33
sg12
VLondon, England
p34
sg14
V12485
p35
sg16
Vnefarioustim
p36
ssg18
Vthinks it seems to be Apress for the Python WIN
p37
sg20
g21
(S'\x07\xd9\x04\x0f\x0c\x117\x00\x00\x00'
p38
tp39
Rp40
sg14
V1524747729
p41
sg26
VWed Apr 15 12:17:55 +0000 2009
p42
sa(dp43
g2
(dp44
g4
VWeb developing, music loving, various instrument playing, gamer cook with a menagerie.
p45
sg6
Vhttp://nefariousdesigns.co.uk
p46
sg8
Vhttp://s3.amazonaws.com/twitter_production/profile_images/59828181/Timmah2008_normal.jpg
p47
sg10
VTimbo
p48
sg12
VLondon, England
p49
sg14
V12485
p50
sg16
Vnefarioustim
p51
ssg18
V@garethr: Which book? Link or GTFO
p52
sg20
g21
(S'\x07\xd9\x04\x0f\x0c\x08\x1e\x00\x00\x00'
p53
tp54
Rp55
sg14
V1524704670
p56
sg26
VWed Apr 15 12:08:30 +0000 2009
p57
sa(dp58
g2
(dp59
g4
VWeb developing, music loving, various instrument playing, gamer cook with a menagerie.
p60
sg6
Vhttp://nefariousdesigns.co.uk
p61
sg8
Vhttp://s3.amazonaws.com/twitter_production/profile_images/59828181/Timmah2008_normal.jpg
p62
sg10
VTimbo
p63
sg12
VLondon, England
p64
sg14
V12485
p65
sg16
Vnefarioustim
p66
ssg18
V@katemonkey: "Chocolate AND a surprise!"
p67
sg20
g21
(S'\x07\xd9\x04\x0f\x0b94\x00\x00\x00'
p68
tp69
Rp70
sg14
V1524657430
p71
sg26
VWed Apr 15 11:57:52 +0000 2009
p72
sa(dp73
g2
(dp74
g4
VWeb developing, music loving, various instrument playing, gamer cook with a menagerie.
p75
sg6
Vhttp://nefariousdesigns.co.uk
p76
sg8
Vhttp://s3.amazonaws.com/twitter_production/profile_images/59828181/Timmah2008_normal.jpg
p77
sg10
VTimbo
p78
sg12
VLondon, England
p79
sg14
V12485
p80
sg16
Vnefarioustim
p81
ssg18
V@philsherry: No idea. Used to like it before I found out I was Coeliac though...
p82
sg20
g21
(S"\x07\xd9\x04\x0f\n\x0f'\x00\x00\x00"
p83
tp84
Rp85
sg14
V1524286763
p86
sg26
VWed Apr 15 10:15:39 +0000 2009
p87
sa.