(lp0
(dp1
S'user'
p2
(dp3
S'description'
p4
VWeb developing, music loving, various instrument playing, gamer cook with a menagerie.
p5
sS'url'
p6
Vhttp://nefariousdesigns.co.uk
p7
sS'profile_image_url'
p8
Vhttp://s3.amazonaws.com/twitter_production/profile_images/59828181/Timmah2008_normal.jpg
p9
sS'name'
p10
VTimbo
p11
sS'location'
p12
VLondon, England
p13
sS'id'
p14
V12485
p15
sS'screen_name'
p16
Vnefarioustim
p17
ssS'text'
p18
Vis marvelling at the awesome crime-fighting force that is the Met.
p19
sS'created_at'
p20
cdatetime
datetime
p21
(S'\x07\xd9\x04\x0e\x11+!\x00\x00\x00'
p22
tp23
Rp24
sg14
V1518321173
p25
sS'created_at_raw'
p26
VTue Apr 14 17:43:33 +0000 2009
p27
sa(dp28
g2
(dp29
g4
VWeb developing, music loving, various instrument playing, gamer cook with a menagerie.
p30
sg6
Vhttp://nefariousdesigns.co.uk
p31
sg8
Vhttp://s3.amazonaws.com/twitter_production/profile_images/59828181/Timmah2008_normal.jpg
p32
sg10
VTimbo
p33
sg12
VLondon, England
p34
sg14
V12485
p35
sg16
Vnefarioustim
p36
ssg18
Vwonders why @spjwebster's Mobile colloquy had fail.
p37
sg20
g21
(S'\x07\xd9\x04\x0e\x11\x05\x17\x00\x00\x00'
p38
tp39
Rp40
sg14
V1518051522
p41
sg26
VTue Apr 14 17:05:23 +0000 2009
p42
sa(dp43
g2
(dp44
g4
VWeb developing, music loving, various instrument playing, gamer cook with a menagerie.
p45
sg6
Vhttp://nefariousdesigns.co.uk
p46
sg8
Vhttp://s3.amazonaws.com/twitter_production/profile_images/59828181/Timmah2008_normal.jpg
p47
sg10
VTimbo
p48
sg12
VLondon, England
p49
sg14
V12485
p50
sg16
Vnefarioustim
p51
ssg18
V@peterjlambert: Don't let the bottom fall out your world -- have a vindaloo and let the world fall out your bottom!
p52
sg20
g21
(S'\x07\xd9\x04\x0e\x10")\x00\x00\x00'
p53
tp54
Rp55
sg14
V1517830271
p56
sg26
VTue Apr 14 16:34:41 +0000 2009
p57
sa(dp58
g2
(dp59
g4
VWeb developing, music loving, various instrument playing, gamer cook with a menagerie.
p60
sg6
Vhttp://nefariousdesigns.co.uk
p61
sg8
Vhttp://s3.amazonaws.com/twitter_production/profile_images/59828181/Timmah2008_normal.jpg
p62
sg10
VTimbo
p63
sg12
VLondon, England
p64
sg14
V12485
p65
sg16
Vnefarioustim
p66
ssg18
Vis more than a little agitated.
p67
sg20
g21
(S'\x07\xd9\x04\x0e\x10\x1c/\x00\x00\x00'
p68
tp69
Rp70
sg14
V1517786646
p71
sg26
VTue Apr 14 16:28:47 +0000 2009
p72
sa(dp73
g2
(dp74
g4
VWeb developing, music loving, various instrument playing, gamer cook with a menagerie.
p75
sg6
Vhttp://nefariousdesigns.co.uk
p76
sg8
Vhttp://s3.amazonaws.com/twitter_production/profile_images/59828181/Timmah2008_normal.jpg
p77
sg10
VTimbo
p78
sg12
VLondon, England
p79
sg14
V12485
p80
sg16
Vnefarioustim
p81
ssg18
Vis teaching the French proper English, innit.
p82
sg20
g21
(S'\x07\xd9\x04\x0e\x0e\x1f:\x00\x00\x00'
p83
tp84
Rp85
sg14
V1516973465
p86
sg26
VTue Apr 14 14:31:58 +0000 2009
p87
sa.