(lp0
(dp1
S'user'
p2
(dp3
S'description'
p4
VWeb developing, music loving, various instrument playing, gamer cook with a menagerie.
p5
sS'url'
p6
Vhttp://nefariousdesigns.co.uk
p7
sS'profile_image_url'
p8
Vhttp://s3.amazonaws.com/twitter_production/profile_images/59828181/Timmah2008_normal.jpg
p9
sS'name'
p10
VTimbo
p11
sS'location'
p12
VLondon, England
p13
sS'id'
p14
V12485
p15
sS'screen_name'
p16
Vnefarioustim
p17
ssS'text'
p18
Vis trying to find the right colour
p19
sS'created_at'
p20
cdatetime
datetime
p21
(S'\x07\xd9\x03\x1e\x16\x07\x02\x00\x00\x00'
p22
tp23
Rp24
sg14
V1420565968
p25
sS'created_at_raw'
p26
VMon Mar 30 22:07:02 +0000 2009
p27
sa(dp28
g2
(dp29
g4
VWeb developing, music loving, various instrument playing, gamer cook with a menagerie.
p30
sg6
Vhttp://nefariousdesigns.co.uk
p31
sg8
Vhttp://s3.amazonaws.com/twitter_production/profile_images/59828181/Timmah2008_normal.jpg
p32
sg10
VTimbo
p33
sg12
VLondon, England
p34
sg14
V12485
p35
sg16
Vnefarioustim
p36
ssg18
Vhas a hot date... object.
p37
sg20
g21
(S'\x07\xd9\x03\x1e\x143$\x00\x00\x00'
p38
tp39
Rp40
sg14
V1420139628
p41
sg26
VMon Mar 30 20:51:36 +0000 2009
p42
sa(dp43
g2
(dp44
g4
VWeb developing, music loving, various instrument playing, gamer cook with a menagerie.
p45
sg6
Vhttp://nefariousdesigns.co.uk
p46
sg8
Vhttp://s3.amazonaws.com/twitter_production/profile_images/59828181/Timmah2008_normal.jpg
p47
sg10
VTimbo
p48
sg12
VLondon, England
p49
sg14
V12485
p50
sg16
Vnefarioustim
p51
ssg18
Vhas a very giggly baby son... with the hiccups.
p52
sg20
g21
(S'\x07\xd9\x03\x1e\x14#;\x00\x00\x00'
p53
tp54
Rp55
sg14
V1420050383
p56
sg26
VMon Mar 30 20:35:59 +0000 2009
p57
sa(dp58
g2
(dp59
g4
VWeb developing, music loving, various instrument playing, gamer cook with a menagerie.
p60
sg6
Vhttp://nefariousdesigns.co.uk
p61
sg8
Vhttp://s3.amazonaws.com/twitter_production/profile_images/59828181/Timmah2008_normal.jpg
p62
sg10
VTimbo
p63
sg12
VLondon, England
p64
sg14
V12485
p65
sg16
Vnefarioustim
p66
ssg18
Vneeds a link for testing, so have this: http://tinyurl.com/czvguj
p67
sg20
g21
(S'\x07\xd9\x03\x1e\x14\x1e\x13\x00\x00\x00'
p68
tp69
Rp70
sg14
V1420018331
p71
sg26
VMon Mar 30 20:30:19 +0000 2009
p72
sa(dp73
g2
(dp74
g4
VWeb developing, music loving, various instrument playing, gamer cook with a menagerie.
p75
sg6
Vhttp://nefariousdesigns.co.uk
p76
sg8
Vhttp://s3.amazonaws.com/twitter_production/profile_images/59828181/Timmah2008_normal.jpg
p77
sg10
VTimbo
p78
sg12
VLondon, England
p79
sg14
V12485
p80
sg16
Vnefarioustim
p81
ssg18
Vis at home, enjoying a bit of peace and quiet.
p82
sg20
g21
(S'\x07\xd9\x03\x1e\x14\x05\x08\x00\x00\x00'
p83
tp84
Rp85
sg14
V1419874771
p86
sg26
VMon Mar 30 20:05:08 +0000 2009
p87
sa.