(lp0
(dp1
S'user'
p2
(dp3
S'description'
p4
VDeveloper
p5
sS'url'
p6
Vhttp://morethanseven.net
p7
sS'profile_image_url'
p8
Vhttp://s3.amazonaws.com/twitter_production/profile_images/71765787/garethrushgrove_normal.jpg
p9
sS'name'
p10
VGareth
p11
sS'location'
p12
VCambridge and London
p13
sS'id'
p14
V80703
p15
sS'screen_name'
p16
Vgarethr
p17
ssS'text'
p18
V@nefarioustim that would be The Definitive Guide to Pylons: http://tinyurl.com/c7s6wx
p19
sS'created_at'
p20
cdatetime
datetime
p21
(S'\x07\xd9\x04\x0f\x0c\x0e\t\x00\x00\x00'
p22
tp23
Rp24
sg14
V1524730159
p25
sS'created_at_raw'
p26
VWed Apr 15 12:14:09 +0000 2009
p27
sa(dp28
g2
(dp29
g4
VWeb Designerd
p30
sg6
Vhttp://philsherry.com/
p31
sg8
Vhttp://s3.amazonaws.com/twitter_production/profile_images/58251020/philsherry_mac.com_33c4d4ab_normal.jpg
p32
sg10
VPhil Sherry
p33
sg12
VStockton-on-Tees, UK
p34
sg14
V645653
p35
sg16
Vphilsherry
p36
ssg18
V@nefarioustim What's the Coeliac Society's stance on Quorn these days?
p37
sg20
g21
(S'\x07\xd9\x04\x0f\n\x0f\x00\x00\x00\x00'
p38
tp39
Rp40
sg14
V1524284519
p41
sg26
VWed Apr 15 10:15:00 +0000 2009
p42
sa(dp43
g2
(dp44
g4
VDon't follow me, I don't know where I'm going.
p45
sg6
Nsg8
Vhttp://s3.amazonaws.com/twitter_production/profile_images/57273772/minipixie_normal.png
p46
sg10
VTamsin
p47
sg12
VLondon
p48
sg14
V830151
p49
sg16
Vweatherpixie
p50
ssg18
V@nefarioustim http://tinyurl.com/dlqagv
p51
sg20
g21
(S'\x07\xd9\x04\x0f\t:0\x00\x00\x00'
p52
tp53
Rp54
sg14
V1524233137
p55
sg26
VWed Apr 15 09:58:48 +0000 2009
p56
sa(dp57
g2
(dp58
g4
VDigital Media Specialist, funky house DJ and family man from Midlands, UK
p59
sg6
Vhttp://simonjobling.com/
p60
sg8
Vhttp://s3.amazonaws.com/twitter_production/profile_images/99622604/Scruffy_Si_normal.jpg
p61
sg10
VSi Jobling
p62
sg12
VRugby, UK
p63
sg14
V11818
p64
sg16
VSi
p65
ssg18
V@nefarioustim, I miss *original* HP Sauce. Refuse to buy it since the Birmingham factory closed down.
p66
sg20
g21
(S'\x07\xd9\x04\x0f\x08\x14\x10\x00\x00\x00'
p67
tp68
Rp69
sg14
V1523928222
p70
sg26
VWed Apr 15 08:20:16 +0000 2009
p71
sa(dp72
g2
(dp73
g4
VSocial coding? Pretty awesome.
p74
sg6
Vhttp://github.com
p75
sg8
Vhttp://s3.amazonaws.com/twitter_production/profile_images/53128678/octocat_fluid_normal.png
p76
sg10
VGitHub
p77
sg12
VSan Francisco, CA
p78
sg14
V13334762
p79
sg16
Vgithub
p80
ssg18
V@nefarioustim How is it not responding? Did you get an error message? We haven't had any downtime lately.
p81
sg20
g21
(S'\x07\xd9\x04\x0e\x12*\x04\x00\x00\x00'
p82
tp83
Rp84
sg14
V1518725532
p85
sg26
VTue Apr 14 18:42:04 +0000 2009
p86
sa.